target datalayout = "e-m:e-p270:32:32-p271:32:32-p272:64:64-i64:64-i128:128-f80:128-n8:16:32:64-S128"
target triple = "x86_64-pc-linux-gnu"

%"class.std::__cxx11::basic_string" = type { %"struct.std::__cxx11::basic_string<char>::_Alloc_hider", i64, %union.anon }
%"struct.std::__cxx11::basic_string<char>::_Alloc_hider" = type { ptr }
%union.anon = type { i64, [8 x i8] }

@.str.4 = private unnamed_addr constant [36 x i8] c"too few arguments for function sum.\00", align 1
@_ZTIN2mu11ParserErrorE = linkonce_odr constant { ptr, ptr } { ptr getelementptr inbounds (ptr, ptr @_ZTVN10__cxxabiv117__class_type_infoE, i64 2), ptr @_ZTSN2mu11ParserErrorE }, comdat, align 8

; Function Attrs: mustprogress uwtable
define noundef double @_ZN2mu9ParserInt3SumEPKdi(ptr noundef %0, i32 noundef %1) #1 align 2 personality ptr @__gxx_personality_v0 {
  %3 = alloca ptr, align 8
  %4 = alloca i32, align 4
  %5 = alloca %"class.std::__cxx11::basic_string", align 8
  %6 = alloca ptr, align 8
  %7 = alloca i32, align 4
  %8 = alloca i1, align 1
  %9 = alloca double, align 8
  %10 = alloca i32, align 4
  store ptr %0, ptr %3, align 8
  store i32 %1, ptr %4, align 4
  %11 = load i32, ptr %4, align 4
  %12 = icmp ne i32 %11, 0
  br i1 %12, label %23, label %13

13:                                               ; preds = %2
  store i1 true, ptr %8, align 1
  %14 = call ptr @__cxa_allocate_exception(i64 112) #5
  call void @_ZNSt7__cxx1112basic_stringIcSt11char_traitsIcESaIcEEC1Ev(ptr noundef nonnull align 8 dereferenceable(32) %5) #5
  invoke void @_ZN2mu11ParserErrorC1EPKciRKNSt7__cxx1112basic_stringIcSt11char_traitsIcESaIcEEE(ptr noundef nonnull align 8 dereferenceable(112) %14, ptr noundef @.str.4, i32 noundef -1, ptr noundef nonnull align 8 dereferenceable(32) %5)
          to label %15 unwind label %16

15:                                               ; preds = %13
  store i1 false, ptr %8, align 1
  invoke void @__cxa_throw(ptr %14, ptr @_ZTIN2mu11ParserErrorE, ptr @_ZN2mu11ParserErrorD1Ev) #11
          to label %46 unwind label %16

16:                                               ; preds = %15, %13
  %17 = landingpad { ptr, i32 }
          cleanup
  %18 = extractvalue { ptr, i32 } %17, 0
  store ptr %18, ptr %6, align 8
  %19 = extractvalue { ptr, i32 } %17, 1
  store i32 %19, ptr %7, align 4
  call void @_ZNSt7__cxx1112basic_stringIcSt11char_traitsIcESaIcEED1Ev(ptr noundef nonnull align 8 dereferenceable(32) %5) #5
  %20 = load i1, ptr %8, align 1
  br i1 %20, label %21, label %22

21:                                               ; preds = %16
  call void @__cxa_free_exception(ptr %14) #5
  br label %22

22:                                               ; preds = %21, %16
  br label %41

23:                                               ; preds = %2
  store double 0.000000e+00, ptr %9, align 8
  store i32 0, ptr %10, align 4
  br label %24

24:                                               ; preds = %36, %23
  %25 = load i32, ptr %10, align 4
  %26 = load i32, ptr %4, align 4
  %27 = icmp slt i32 %25, %26
  br i1 %27, label %28, label %39

28:                                               ; preds = %24
  %29 = load ptr, ptr %3, align 8
  %30 = load i32, ptr %10, align 4
  %31 = sext i32 %30 to i64
  %32 = getelementptr inbounds double, ptr %29, i64 %31
  %33 = load double, ptr %32, align 8
  %34 = load double, ptr %9, align 8
  %35 = fadd double %34, %33
  store double %35, ptr %9, align 8
  br label %36

36:                                               ; preds = %28
  %37 = load i32, ptr %10, align 4
  %38 = add nsw i32 %37, 1
  store i32 %38, ptr %10, align 4
  br label %24, !llvm.loop !5

39:                                               ; preds = %24
  %40 = load double, ptr %9, align 8
  ret double %40

41:                                               ; preds = %22
  %42 = load ptr, ptr %6, align 8
  %43 = load i32, ptr %7, align 4
  %44 = insertvalue { ptr, i32 } poison, ptr %42, 0
  %45 = insertvalue { ptr, i32 } %44, i32 %43, 1
  resume { ptr, i32 } %45

46:                                               ; preds = %15
  unreachable
}