; Function Attrs: mustprogress uwtable
define noundef double @_ZN2mu9ParserInt3SumEPKdi(ptr nocapture noundef readonly %0, i32 noundef %1) #1 align 2 personality ptr @__gxx_personality_v0 {
  %3 = alloca %"class.std::__cxx11::basic_string", align 8
  %.not = icmp eq i32 %1, 0
  br i1 %.not, label %5, label %.preheader

.preheader:                                       ; preds = %2
  %4 = icmp sgt i32 %1, 0
  br i1 %4, label %.lr.ph.preheader, label %._crit_edge

.lr.ph.preheader:                                 ; preds = %.preheader
  %wide.trip.count = zext nneg i32 %1 to i64
  br label %.lr.ph

5:                                                ; preds = %2
  %6 = tail call ptr @__cxa_allocate_exception(i64 112) #12
  call void @_ZNSt7__cxx1112basic_stringIcSt11char_traitsIcESaIcEEC1Ev(ptr noundef nonnull align 8 dereferenceable(32) %3) #12
  invoke void @_ZN2mu11ParserErrorC1EPKciRKNSt7__cxx1112basic_stringIcSt11char_traitsIcESaIcEEE(ptr noundef nonnull align 8 dereferenceable(112) %6, ptr noundef nonnull @.str.4, i32 noundef -1, ptr noundef nonnull align 8 dereferenceable(32) %3)
          to label %7 unwind label %10

7:                                                ; preds = %5
  invoke void @__cxa_throw(ptr nonnull %6, ptr nonnull @_ZTIN2mu11ParserErrorE, ptr nonnull @_ZN2mu11ParserErrorD1Ev) #14
          to label %17 unwind label %8

8:                                                ; preds = %7
  %9 = landingpad { ptr, i32 }
          cleanup
  call void @_ZNSt7__cxx1112basic_stringIcSt11char_traitsIcESaIcEED1Ev(ptr noundef nonnull align 8 dereferenceable(32) %3) #12
  br label %15

10:                                               ; preds = %5
  %11 = landingpad { ptr, i32 }
          cleanup
  call void @_ZNSt7__cxx1112basic_stringIcSt11char_traitsIcESaIcEED1Ev(ptr noundef nonnull align 8 dereferenceable(32) %3) #12
  call void @__cxa_free_exception(ptr %6) #12
  br label %15

.lr.ph:                                           ; preds = %.lr.ph.preheader, %.lr.ph
  %indvars.iv = phi i64 [ 0, %.lr.ph.preheader ], [ %indvars.iv.next, %.lr.ph ]
  %.01014 = phi double [ 0.000000e+00, %.lr.ph.preheader ], [ %14, %.lr.ph ]
  %12 = getelementptr inbounds double, ptr %0, i64 %indvars.iv
  %13 = load double, ptr %12, align 8
  %14 = fadd double %.01014, %13
  %indvars.iv.next = add nuw nsw i64 %indvars.iv, 1
  %exitcond.not = icmp eq i64 %indvars.iv.next, %wide.trip.count
  br i1 %exitcond.not, label %._crit_edge, label %.lr.ph, !llvm.loop !5

._crit_edge:                                      ; preds = %.lr.ph, %.preheader
  %.010.lcssa = phi double [ 0.000000e+00, %.preheader ], [ %14, %.lr.ph ]
  ret double %.010.lcssa

15:                                               ; preds = %8, %10
  %16 = phi { ptr, i32 } [ %9, %8 ], [ %11, %10 ]
  resume { ptr, i32 } %16

17:                                               ; preds = %7
  unreachable
}